target datalayout = "e-m:e-p270:32:32-p271:32:32-p272:64:64-i64:64-i128:128-f80:128-n8:16:32:64-S128"
target triple = "x86_64-pc-linux-gnu"

%struct.lua_Debug = type { i32, ptr, ptr, ptr, ptr, i32, i32, i32, i32, [60 x i8], i32 }

@.str.39 = private unnamed_addr constant [19 x i8] c"level out of range\00", align 1

; Function Attrs: nounwind uwtable
define internal ptr @getthread(ptr noundef %0, ptr noundef %1) #0 {
  %3 = alloca ptr, align 8
  %4 = alloca ptr, align 8
  %5 = alloca ptr, align 8
  store ptr %0, ptr %4, align 8, !tbaa !4
  store ptr %1, ptr %5, align 8, !tbaa !29
  %6 = load ptr, ptr %4, align 8, !tbaa !4
  %7 = call i32 @lua_type(ptr noundef %6, i32 noundef 1)
  %8 = icmp eq i32 %7, 8
  br i1 %8, label %9, label %13

9:                                                ; preds = %2
  %10 = load ptr, ptr %5, align 8, !tbaa !29
  store i32 1, ptr %10, align 4, !tbaa !11
  %11 = load ptr, ptr %4, align 8, !tbaa !4
  %12 = call ptr @lua_tothread(ptr noundef %11, i32 noundef 1)
  store ptr %12, ptr %3, align 8
  br label %16

13:                                               ; preds = %2
  %14 = load ptr, ptr %5, align 8, !tbaa !29
  store i32 0, ptr %14, align 4, !tbaa !11
  %15 = load ptr, ptr %4, align 8, !tbaa !4
  store ptr %15, ptr %3, align 8
  br label %16

16:                                               ; preds = %13, %9
  %17 = load ptr, ptr %3, align 8
  ret ptr %17
}

; Function Attrs: nounwind uwtable
define internal i32 @db_getlocal(ptr noundef %0) #0 {
  %2 = alloca i32, align 4
  %3 = alloca ptr, align 8
  %4 = alloca i32, align 4
  %5 = alloca ptr, align 8
  %6 = alloca %struct.lua_Debug, align 8
  %7 = alloca ptr, align 8
  %8 = alloca i32, align 4
  store ptr %0, ptr %3, align 8, !tbaa !4
  call void @llvm.lifetime.start.p0(i64 4, ptr %4) #4
  call void @llvm.lifetime.start.p0(i64 8, ptr %5) #4
  %9 = load ptr, ptr %3, align 8, !tbaa !4
  %10 = call ptr @getthread(ptr noundef %9, ptr noundef %4)
  store ptr %10, ptr %5, align 8, !tbaa !4
  call void @llvm.lifetime.start.p0(i64 120, ptr %6) #4
  call void @llvm.lifetime.start.p0(i64 8, ptr %7) #4
  %11 = load ptr, ptr %5, align 8, !tbaa !4
  %12 = load ptr, ptr %3, align 8, !tbaa !4
  %13 = load i32, ptr %4, align 4, !tbaa !11
  %14 = add nsw i32 %13, 1
  %15 = call i64 @luaL_checkinteger(ptr noundef %12, i32 noundef %14)
  %16 = trunc i64 %15 to i32
  %17 = call i32 @lua_getstack(ptr noundef %11, i32 noundef %16, ptr noundef %6)
  %18 = icmp ne i32 %17, 0
  br i1 %18, label %24, label %19

19:                                               ; preds = %1
  %20 = load ptr, ptr %3, align 8, !tbaa !4
  %21 = load i32, ptr %4, align 4, !tbaa !11
  %22 = add nsw i32 %21, 1
  %23 = call i32 @luaL_argerror(ptr noundef %20, i32 noundef %22, ptr noundef @.str.39)
  store i32 %23, ptr %2, align 4
  store i32 1, ptr %8, align 4
  br label %42

24:                                               ; preds = %1
  %25 = load ptr, ptr %5, align 8, !tbaa !4
  %26 = load ptr, ptr %3, align 8, !tbaa !4
  %27 = load i32, ptr %4, align 4, !tbaa !11
  %28 = add nsw i32 %27, 2
  %29 = call i64 @luaL_checkinteger(ptr noundef %26, i32 noundef %28)
  %30 = trunc i64 %29 to i32
  %31 = call ptr @lua_getlocal(ptr noundef %25, ptr noundef %6, i32 noundef %30)
  store ptr %31, ptr %7, align 8, !tbaa !14
  %32 = load ptr, ptr %7, align 8, !tbaa !14
  %33 = icmp ne ptr %32, null
  br i1 %33, label %34, label %40

34:                                               ; preds = %24
  %35 = load ptr, ptr %5, align 8, !tbaa !4
  %36 = load ptr, ptr %3, align 8, !tbaa !4
  call void @lua_xmove(ptr noundef %35, ptr noundef %36, i32 noundef 1)
  %37 = load ptr, ptr %3, align 8, !tbaa !4
  %38 = load ptr, ptr %7, align 8, !tbaa !14
  call void @lua_pushstring(ptr noundef %37, ptr noundef %38)
  %39 = load ptr, ptr %3, align 8, !tbaa !4
  call void @lua_pushvalue(ptr noundef %39, i32 noundef -2)
  store i32 2, ptr %2, align 4
  store i32 1, ptr %8, align 4
  br label %42

40:                                               ; preds = %24
  %41 = load ptr, ptr %3, align 8, !tbaa !4
  call void @lua_pushnil(ptr noundef %41)
  store i32 1, ptr %2, align 4
  store i32 1, ptr %8, align 4
  br label %42

42:                                               ; preds = %40, %34, %19
  call void @llvm.lifetime.end.p0(i64 8, ptr %7) #4
  call void @llvm.lifetime.end.p0(i64 120, ptr %6) #4
  call void @llvm.lifetime.end.p0(i64 8, ptr %5) #4
  call void @llvm.lifetime.end.p0(i64 4, ptr %4) #4
  %43 = load i32, ptr %2, align 4
  ret i32 %43
}