; Function Attrs: nounwind uwtable
define internal i32 @db_getlocal(ptr noundef %0) #0 {
  %2 = alloca %struct.lua_Debug, align 8
  %3 = tail call i32 @lua_type(ptr noundef %0, i32 noundef 1) #8
  %4 = icmp eq i32 %3, 8
  br i1 %4, label %5, label %getthread.exit

5:                                                ; preds = %1
  %6 = tail call ptr @lua_tothread(ptr noundef %0, i32 noundef 1) #8
  br label %getthread.exit

getthread.exit:                                   ; preds = %1, %5
  %.017 = phi i32 [ 1, %5 ], [ 0, %1 ]
  %.0.i = phi ptr [ %6, %5 ], [ %0, %1 ]
  call void @llvm.lifetime.start.p0(i64 120, ptr nonnull %2) #8
  %7 = add nuw nsw i32 %.017, 1
  %8 = tail call i64 @luaL_checkinteger(ptr noundef %0, i32 noundef %7) #8
  %9 = trunc i64 %8 to i32
  %10 = call i32 @lua_getstack(ptr noundef %.0.i, i32 noundef %9, ptr noundef nonnull %2) #8
  %.not = icmp eq i32 %10, 0
  br i1 %.not, label %11, label %13

11:                                               ; preds = %getthread.exit
  %12 = call i32 @luaL_argerror(ptr noundef %0, i32 noundef %7, ptr noundef nonnull @.str.39) #8
  br label %20

13:                                               ; preds = %getthread.exit
  %14 = or disjoint i32 %.017, 2
  %15 = call i64 @luaL_checkinteger(ptr noundef %0, i32 noundef %14) #8
  %16 = trunc i64 %15 to i32
  %17 = call ptr @lua_getlocal(ptr noundef %.0.i, ptr noundef nonnull %2, i32 noundef %16) #8
  %.not14 = icmp eq ptr %17, null
  br i1 %.not14, label %19, label %18

18:                                               ; preds = %13
  call void @lua_xmove(ptr noundef %.0.i, ptr noundef %0, i32 noundef 1) #8
  call void @lua_pushstring(ptr noundef %0, ptr noundef nonnull %17) #8
  call void @lua_pushvalue(ptr noundef %0, i32 noundef -2) #8
  br label %20

19:                                               ; preds = %13
  call void @lua_pushnil(ptr noundef %0) #8
  br label %20

20:                                               ; preds = %19, %18, %11
  %.0 = phi i32 [ 2, %18 ], [ 1, %19 ], [ %12, %11 ]
  call void @llvm.lifetime.end.p0(i64 120, ptr nonnull %2) #8
  ret i32 %.0
}